target datalayout = "e-m:e-p270:32:32-p271:32:32-p272:64:64-i64:64-i128:128-f80:128-n8:16:32:64-S128"
target triple = "x86_64-pc-linux-gnu"

%struct.TParser = type { ptr, i32, ptr, ptr, i8, i32, ptr, i8, i8, i8, ptr, i32, i32, i32 }
%struct.TParserPosition = type { i32, i32, i32, i32, i32, i32, ptr, ptr }

; Function Attrs: nounwind uwtable
define internal i32 @p_isalnum(ptr noundef %0) #0 {
  %2 = alloca i32, align 4
  %3 = alloca ptr, align 8
  %4 = alloca i32, align 4
  %5 = alloca i32, align 4
  store ptr %0, ptr %3, align 8
  %6 = load ptr, ptr %3, align 8
  %7 = getelementptr inbounds nuw %struct.TParser, ptr %6, i32 0, i32 4
  %8 = load i8, ptr %7, align 8, !range !4, !noundef !5
  %9 = trunc i8 %8 to i1
  br i1 %9, label %10, label %53

10:                                               ; preds = %1
  %11 = load ptr, ptr %3, align 8
  %12 = getelementptr inbounds nuw %struct.TParser, ptr %11, i32 0, i32 3
  %13 = load ptr, ptr %12, align 8
  %14 = icmp ne ptr %13, null
  br i1 %14, label %15, label %40

15:                                               ; preds = %10
  call void @llvm.lifetime.start.p0(i64 4, ptr %4) #11
  %16 = load ptr, ptr %3, align 8
  %17 = getelementptr inbounds nuw %struct.TParser, ptr %16, i32 0, i32 3
  %18 = load ptr, ptr %17, align 8
  %19 = load ptr, ptr %3, align 8
  %20 = getelementptr inbounds nuw %struct.TParser, ptr %19, i32 0, i32 6
  %21 = load ptr, ptr %20, align 8
  %22 = getelementptr inbounds nuw %struct.TParserPosition, ptr %21, i32 0, i32 1
  %23 = load i32, ptr %22, align 4
  %24 = sext i32 %23 to i64
  %25 = getelementptr inbounds i32, ptr %18, i64 %24
  %26 = load i32, ptr %25, align 4
  store i32 %26, ptr %4, align 4
  %27 = load i32, ptr %4, align 4
  %28 = icmp ugt i32 %27, 127
  br i1 %28, label %29, label %30

29:                                               ; preds = %15
  store i32 1, ptr %2, align 4
  store i32 1, ptr %5, align 4
  br label %39

30:                                               ; preds = %15
  %31 = call ptr @__ctype_b_loc() #12
  %32 = load ptr, ptr %31, align 8
  %33 = load i32, ptr %4, align 4
  %34 = sext i32 %33 to i64
  %35 = getelementptr inbounds i16, ptr %32, i64 %34
  %36 = load i16, ptr %35, align 2
  %37 = zext i16 %36 to i32
  %38 = and i32 %37, 8
  store i32 %38, ptr %2, align 4
  store i32 1, ptr %5, align 4
  br label %39

39:                                               ; preds = %30, %29
  call void @llvm.lifetime.end.p0(i64 4, ptr %4) #11
  br label %73

40:                                               ; preds = %10
  %41 = load ptr, ptr %3, align 8
  %42 = getelementptr inbounds nuw %struct.TParser, ptr %41, i32 0, i32 2
  %43 = load ptr, ptr %42, align 8
  %44 = load ptr, ptr %3, align 8
  %45 = getelementptr inbounds nuw %struct.TParser, ptr %44, i32 0, i32 6
  %46 = load ptr, ptr %45, align 8
  %47 = getelementptr inbounds nuw %struct.TParserPosition, ptr %46, i32 0, i32 1
  %48 = load i32, ptr %47, align 4
  %49 = sext i32 %48 to i64
  %50 = getelementptr inbounds i32, ptr %43, i64 %49
  %51 = load i32, ptr %50, align 4
  %52 = call i32 @iswalnum(i32 noundef %51) #11
  store i32 %52, ptr %2, align 4
  br label %73

53:                                               ; preds = %1
  %54 = call ptr @__ctype_b_loc() #12
  %55 = load ptr, ptr %54, align 8
  %56 = load ptr, ptr %3, align 8
  %57 = getelementptr inbounds nuw %struct.TParser, ptr %56, i32 0, i32 0
  %58 = load ptr, ptr %57, align 8
  %59 = load ptr, ptr %3, align 8
  %60 = getelementptr inbounds nuw %struct.TParser, ptr %59, i32 0, i32 6
  %61 = load ptr, ptr %60, align 8
  %62 = getelementptr inbounds nuw %struct.TParserPosition, ptr %61, i32 0, i32 0
  %63 = load i32, ptr %62, align 8
  %64 = sext i32 %63 to i64
  %65 = getelementptr inbounds i8, ptr %58, i64 %64
  %66 = load i8, ptr %65, align 1
  %67 = zext i8 %66 to i32
  %68 = sext i32 %67 to i64
  %69 = getelementptr inbounds i16, ptr %55, i64 %68
  %70 = load i16, ptr %69, align 2
  %71 = zext i16 %70 to i32
  %72 = and i32 %71, 8
  store i32 %72, ptr %2, align 4
  br label %73

73:                                               ; preds = %53, %40, %39
  %74 = load i32, ptr %2, align 4
  ret i32 %74
}